target datalayout = "e-m:e-p270:32:32-p271:32:32-p272:64:64-i64:64-i128:128-f80:128-n8:16:32:64-S128"
target triple = "x86_64-pc-linux-gnu"

@.str.6 = private unnamed_addr constant [41 x i8] c"../openssl/test/provider_internal_test.c\00", align 1
@.str.27 = private unnamed_addr constant [25 x i8] c"ctx = OSSL_LIB_CTX_new()\00", align 1
@.str.28 = private unnamed_addr constant [42 x i8] c"prov = OSSL_PROVIDER_load(ctx, \22default\22)\00", align 1
@.str.29 = private unnamed_addr constant [8 x i8] c"default\00", align 1
@.str.30 = private unnamed_addr constant [40 x i8] c"OSSL_PROVIDER_available(ctx, \22default\22)\00", align 1
@.str.31 = private unnamed_addr constant [39 x i8] c"md = EVP_MD_fetch(ctx, \22SHA256\22, NULL)\00", align 1
@.str.32 = private unnamed_addr constant [7 x i8] c"SHA256\00", align 1
@.str.33 = private unnamed_addr constant [26 x i8] c"%s provider is available\0A\00", align 1
@.str.34 = private unnamed_addr constant [30 x i8] c"%s provider is not available\0A\00", align 1

; Function Attrs: nounwind uwtable
define internal i32 @test_cache_flushes() #0 {
  %1 = alloca ptr, align 8
  %2 = alloca ptr, align 8
  %3 = alloca ptr, align 8
  %4 = alloca i32, align 4
  %5 = alloca ptr, align 8
  call void @llvm.lifetime.start.p0(i64 8, ptr %1) #3
  call void @llvm.lifetime.start.p0(i64 8, ptr %2) #3
  store ptr null, ptr %2, align 8, !tbaa !9
  call void @llvm.lifetime.start.p0(i64 8, ptr %3) #3
  store ptr null, ptr %3, align 8, !tbaa !13
  call void @llvm.lifetime.start.p0(i64 4, ptr %4) #3
  store i32 0, ptr %4, align 4, !tbaa !11
  %6 = call ptr @OSSL_LIB_CTX_new()
  store ptr %6, ptr %1, align 8, !tbaa !15
  %7 = call i32 @test_ptr(ptr noundef @.str.6, i32 noundef 109, ptr noundef @.str.27, ptr noundef %6)
  %8 = icmp ne i32 %7, 0
  br i1 %8, label %9, label %26

9:                                                ; preds = %0
  %10 = load ptr, ptr %1, align 8, !tbaa !15
  %11 = call ptr @OSSL_PROVIDER_load(ptr noundef %10, ptr noundef @.str.29)
  store ptr %11, ptr %2, align 8, !tbaa !9
  %12 = call i32 @test_ptr(ptr noundef @.str.6, i32 noundef 110, ptr noundef @.str.28, ptr noundef %11)
  %13 = icmp ne i32 %12, 0
  br i1 %13, label %14, label %26

14:                                               ; preds = %9
  %15 = load ptr, ptr %1, align 8, !tbaa !15
  %16 = call i32 @OSSL_PROVIDER_available(ptr noundef %15, ptr noundef @.str.29)
  %17 = icmp ne i32 %16, 0
  %18 = zext i1 %17 to i32
  %19 = call i32 @test_true(ptr noundef @.str.6, i32 noundef 111, ptr noundef @.str.30, i32 noundef %18)
  %20 = icmp ne i32 %19, 0
  br i1 %20, label %21, label %26

21:                                               ; preds = %14
  %22 = load ptr, ptr %1, align 8, !tbaa !15
  %23 = call ptr @EVP_MD_fetch(ptr noundef %22, ptr noundef @.str.32, ptr noundef null)
  store ptr %23, ptr %3, align 8, !tbaa !13
  %24 = call i32 @test_ptr(ptr noundef @.str.6, i32 noundef 112, ptr noundef @.str.31, ptr noundef %23)
  %25 = icmp ne i32 %24, 0
  br i1 %25, label %27, label %26

26:                                               ; preds = %21, %14, %9, %0
  br label %56

27:                                               ; preds = %21
  %28 = load ptr, ptr %3, align 8, !tbaa !13
  call void @EVP_MD_free(ptr noundef %28)
  store ptr null, ptr %3, align 8, !tbaa !13
  %29 = load ptr, ptr %2, align 8, !tbaa !9
  %30 = call i32 @OSSL_PROVIDER_unload(ptr noundef %29)
  store ptr null, ptr %2, align 8, !tbaa !9
  %31 = load ptr, ptr %1, align 8, !tbaa !15
  %32 = call i32 @OSSL_PROVIDER_available(ptr noundef %31, ptr noundef @.str.29)
  %33 = icmp ne i32 %32, 0
  %34 = zext i1 %33 to i32
  %35 = call i32 @test_false(ptr noundef @.str.6, i32 noundef 119, ptr noundef @.str.30, i32 noundef %34)
  %36 = icmp ne i32 %35, 0
  br i1 %36, label %38, label %37

37:                                               ; preds = %27
  br label %56

38:                                               ; preds = %27
  %39 = load ptr, ptr %1, align 8, !tbaa !15
  %40 = call ptr @EVP_MD_fetch(ptr noundef %39, ptr noundef @.str.32, ptr noundef null)
  store ptr %40, ptr %3, align 8, !tbaa !13
  %41 = call i32 @test_ptr_null(ptr noundef @.str.6, i32 noundef 122, ptr noundef @.str.31, ptr noundef %40)
  %42 = icmp ne i32 %41, 0
  br i1 %42, label %55, label %43

43:                                               ; preds = %38
  call void @llvm.lifetime.start.p0(i64 8, ptr %5) #3
  %44 = load ptr, ptr %3, align 8, !tbaa !13
  %45 = call ptr @EVP_MD_get0_provider(ptr noundef %44)
  %46 = call ptr @OSSL_PROVIDER_get0_name(ptr noundef %45)
  store ptr %46, ptr %5, align 8, !tbaa !4
  %47 = load ptr, ptr %5, align 8, !tbaa !4
  %48 = call i32 @OSSL_PROVIDER_available(ptr noundef null, ptr noundef %47)
  %49 = icmp ne i32 %48, 0
  br i1 %49, label %50, label %52

50:                                               ; preds = %43
  %51 = load ptr, ptr %5, align 8, !tbaa !4
  call void (ptr, i32, ptr, ...) @test_info(ptr noundef @.str.6, i32 noundef 126, ptr noundef @.str.33, ptr noundef %51)
  br label %54

52:                                               ; preds = %43
  %53 = load ptr, ptr %5, align 8, !tbaa !4
  call void (ptr, i32, ptr, ...) @test_info(ptr noundef @.str.6, i32 noundef 128, ptr noundef @.str.34, ptr noundef %53)
  br label %54

54:                                               ; preds = %52, %50
  call void @llvm.lifetime.end.p0(i64 8, ptr %5) #3
  br label %55

55:                                               ; preds = %54, %38
  store i32 1, ptr %4, align 4, !tbaa !11
  br label %56

56:                                               ; preds = %55, %37, %26
  %57 = load ptr, ptr %2, align 8, !tbaa !9
  %58 = call i32 @OSSL_PROVIDER_unload(ptr noundef %57)
  %59 = load ptr, ptr %3, align 8, !tbaa !13
  call void @EVP_MD_free(ptr noundef %59)
  %60 = load ptr, ptr %1, align 8, !tbaa !15
  call void @OSSL_LIB_CTX_free(ptr noundef %60)
  %61 = load i32, ptr %4, align 4, !tbaa !11
  call void @llvm.lifetime.end.p0(i64 4, ptr %4) #3
  call void @llvm.lifetime.end.p0(i64 8, ptr %3) #3
  call void @llvm.lifetime.end.p0(i64 8, ptr %2) #3
  call void @llvm.lifetime.end.p0(i64 8, ptr %1) #3
  ret i32 %61
}