; Function Attrs: nounwind uwtable
define internal range(i32 0, 2) i32 @test_cache_flushes() #0 {
  %1 = tail call ptr @OSSL_LIB_CTX_new() #2
  %2 = tail call i32 @test_ptr(ptr noundef nonnull @.str.6, i32 noundef 109, ptr noundef nonnull @.str.27, ptr noundef %1) #2
  %.not = icmp eq i32 %2, 0
  br i1 %.not, label %29, label %3

3:                                                ; preds = %0
  %4 = tail call ptr @OSSL_PROVIDER_load(ptr noundef %1, ptr noundef nonnull @.str.29) #2
  %5 = tail call i32 @test_ptr(ptr noundef nonnull @.str.6, i32 noundef 110, ptr noundef nonnull @.str.28, ptr noundef %4) #2
  %.not16 = icmp eq i32 %5, 0
  br i1 %.not16, label %29, label %6

6:                                                ; preds = %3
  %7 = tail call i32 @OSSL_PROVIDER_available(ptr noundef %1, ptr noundef nonnull @.str.29) #2
  %8 = icmp ne i32 %7, 0
  %9 = zext i1 %8 to i32
  %10 = tail call i32 @test_true(ptr noundef nonnull @.str.6, i32 noundef 111, ptr noundef nonnull @.str.30, i32 noundef %9) #2
  %.not17 = icmp eq i32 %10, 0
  br i1 %.not17, label %29, label %11

11:                                               ; preds = %6
  %12 = tail call ptr @EVP_MD_fetch(ptr noundef %1, ptr noundef nonnull @.str.32, ptr noundef null) #2
  %13 = tail call i32 @test_ptr(ptr noundef nonnull @.str.6, i32 noundef 112, ptr noundef nonnull @.str.31, ptr noundef %12) #2
  %.not18 = icmp eq i32 %13, 0
  br i1 %.not18, label %29, label %14

14:                                               ; preds = %11
  tail call void @EVP_MD_free(ptr noundef %12) #2
  %15 = tail call i32 @OSSL_PROVIDER_unload(ptr noundef %4) #2
  %16 = tail call i32 @OSSL_PROVIDER_available(ptr noundef %1, ptr noundef nonnull @.str.29) #2
  %17 = icmp ne i32 %16, 0
  %18 = zext i1 %17 to i32
  %19 = tail call i32 @test_false(ptr noundef nonnull @.str.6, i32 noundef 119, ptr noundef nonnull @.str.30, i32 noundef %18) #2
  %.not19 = icmp eq i32 %19, 0
  br i1 %.not19, label %29, label %20

20:                                               ; preds = %14
  %21 = tail call ptr @EVP_MD_fetch(ptr noundef %1, ptr noundef nonnull @.str.32, ptr noundef null) #2
  %22 = tail call i32 @test_ptr_null(ptr noundef nonnull @.str.6, i32 noundef 122, ptr noundef nonnull @.str.31, ptr noundef %21) #2
  %.not20 = icmp eq i32 %22, 0
  br i1 %.not20, label %23, label %29

23:                                               ; preds = %20
  %24 = tail call ptr @EVP_MD_get0_provider(ptr noundef %21) #2
  %25 = tail call ptr @OSSL_PROVIDER_get0_name(ptr noundef %24) #2
  %26 = tail call i32 @OSSL_PROVIDER_available(ptr noundef null, ptr noundef %25) #2
  %.not21 = icmp eq i32 %26, 0
  br i1 %.not21, label %28, label %27

27:                                               ; preds = %23
  tail call void (ptr, i32, ptr, ...) @test_info(ptr noundef nonnull @.str.6, i32 noundef 126, ptr noundef nonnull @.str.33, ptr noundef %25) #2
  br label %29

28:                                               ; preds = %23
  tail call void (ptr, i32, ptr, ...) @test_info(ptr noundef nonnull @.str.6, i32 noundef 128, ptr noundef nonnull @.str.34, ptr noundef %25) #2
  br label %29

29:                                               ; preds = %20, %28, %27, %14, %0, %3, %6, %11
  %.015 = phi ptr [ null, %14 ], [ %12, %11 ], [ null, %6 ], [ null, %3 ], [ null, %0 ], [ %21, %27 ], [ %21, %28 ], [ %21, %20 ]
  %.014 = phi i32 [ 0, %14 ], [ 0, %11 ], [ 0, %6 ], [ 0, %3 ], [ 0, %0 ], [ 1, %27 ], [ 1, %28 ], [ 1, %20 ]
  %.0 = phi ptr [ null, %14 ], [ %4, %11 ], [ %4, %6 ], [ %4, %3 ], [ null, %0 ], [ null, %27 ], [ null, %28 ], [ null, %20 ]
  %30 = tail call i32 @OSSL_PROVIDER_unload(ptr noundef %.0) #2
  tail call void @EVP_MD_free(ptr noundef %.015) #2
  tail call void @OSSL_LIB_CTX_free(ptr noundef %1) #2
  ret i32 %.014
}